target datalayout = "e-m:e-p270:32:32-p271:32:32-p272:64:64-i64:64-i128:128-f80:128-n8:16:32:64-S128"
target triple = "x86_64-pc-linux-gnu"

%struct.PGShmemHeader = type { i32, i32, i64, i64, i32, ptr, i64, i64 }

@ShmemSegHdr = internal global ptr null, align 8
@ShmemBase = internal global ptr null, align 8
@ShmemEnd = internal global ptr null, align 8

; Function Attrs: nounwind uwtable
define dso_local void @InitShmemAccess(ptr noundef %0) #0 {
  %2 = alloca ptr, align 8
  store ptr %0, ptr %2, align 8
  %3 = load ptr, ptr %2, align 8
  store ptr %3, ptr @ShmemSegHdr, align 8
  %4 = load ptr, ptr %2, align 8
  store ptr %4, ptr @ShmemBase, align 8
  %5 = load ptr, ptr @ShmemBase, align 8
  %6 = load ptr, ptr %2, align 8
  %7 = getelementptr inbounds nuw %struct.PGShmemHeader, ptr %6, i32 0, i32 2
  %8 = load i64, ptr %7, align 8
  %9 = getelementptr inbounds nuw i8, ptr %5, i64 %8
  store ptr %9, ptr @ShmemEnd, align 8
  ret void
}