; Function Attrs: mustprogress nofree norecurse nosync nounwind willreturn memory(write, argmem: read, inaccessiblemem: none) uwtable
define dso_local void @InitShmemAccess(ptr noundef %0) local_unnamed_addr #0 {
  store ptr %0, ptr @ShmemSegHdr, align 8
  store ptr %0, ptr @ShmemBase, align 8
  %2 = getelementptr inbounds nuw i8, ptr %0, i64 8
  %3 = load i64, ptr %2, align 8
  %4 = getelementptr inbounds nuw i8, ptr %0, i64 %3
  store ptr %4, ptr @ShmemEnd, align 8
  ret void
}